; Function Attrs: mustprogress nounwind uwtable
define hidden void @_ZN8PhaseCCPC2EP12PhaseIterGVN(ptr noundef nonnull align 8 dereferenceable(2488) %0, ptr nocapture noundef readonly %1) unnamed_addr #0 align 2 {
  tail call void @_ZN11PhaseValuesC2Ev(ptr noundef nonnull align 8 dereferenceable(2400) %0)
  store ptr getelementptr inbounds inrange(-16, 48) (i8, ptr @_ZTV12PhaseIterGVN, i64 16), ptr %0, align 8
  %3 = getelementptr inbounds i8, ptr %0, i64 2400
  %4 = getelementptr inbounds i8, ptr %1, i64 2400
  %5 = load i8, ptr %4, align 8
  %6 = and i8 %5, 1
  store i8 %6, ptr %3, align 8
  %7 = getelementptr inbounds i8, ptr %0, i64 2408
  %8 = getelementptr inbounds i8, ptr %0, i64 16
  %9 = load ptr, ptr %8, align 8
  %10 = getelementptr inbounds i8, ptr %9, i64 1960
  %11 = load ptr, ptr %10, align 8
  store ptr %11, ptr %7, align 8
  %12 = getelementptr inbounds i8, ptr %0, i64 24
  store i8 1, ptr %12, align 8
  store ptr getelementptr inbounds inrange(-16, 56) (i8, ptr @_ZTV8PhaseCCP, i64 16), ptr %0, align 8
  %13 = getelementptr inbounds i8, ptr %0, i64 2416
  %14 = tail call align 8 ptr @llvm.threadlocal.address.p0(ptr align 8 @_ZN6Thread12_thr_currentE)
  %15 = load ptr, ptr %14, align 8
  %16 = getelementptr inbounds i8, ptr %15, i64 800
  %17 = load ptr, ptr %16, align 8
  store ptr %17, ptr %13, align 8
  %18 = getelementptr inbounds i8, ptr %0, i64 2424
  store i32 4, ptr %18, align 8
  %19 = getelementptr inbounds i8, ptr %17, i64 40
  %20 = load ptr, ptr %19, align 8
  %21 = getelementptr inbounds i8, ptr %17, i64 32
  %22 = load ptr, ptr %21, align 8
  %23 = ptrtoint ptr %20 to i64
  %24 = ptrtoint ptr %22 to i64
  %25 = sub i64 %23, %24
  %.not.i.i.i.i.i = icmp ult i64 %25, 32
  br i1 %.not.i.i.i.i.i, label %28, label %26

26:                                               ; preds = %2
  %27 = getelementptr inbounds i8, ptr %22, i64 32
  store ptr %27, ptr %21, align 8
  br label %_ZN16Unique_Node_ListC2Ev.exit

28:                                               ; preds = %2
  %29 = tail call noundef ptr @_ZN5Arena4growEmN17AllocFailStrategy13AllocFailEnumE(ptr noundef nonnull align 8 dereferenceable(48) %17, i64 noundef 32, i32 noundef 0) #16
  br label %_ZN16Unique_Node_ListC2Ev.exit

_ZN16Unique_Node_ListC2Ev.exit:                   ; preds = %26, %28
  %.0.i.i.i.i.i = phi ptr [ %22, %26 ], [ %29, %28 ]
  %30 = getelementptr inbounds i8, ptr %0, i64 2432
  store ptr %.0.i.i.i.i.i, ptr %30, align 8
  %31 = load i32, ptr %18, align 8
  %32 = zext i32 %31 to i64
  %33 = shl nuw nsw i64 %32, 3
  tail call void @llvm.memset.p0.i64(ptr align 1 %.0.i.i.i.i.i, i8 0, i64 %33, i1 false)
  %34 = getelementptr inbounds i8, ptr %0, i64 2440
  store i32 0, ptr %34, align 8
  %35 = getelementptr inbounds i8, ptr %0, i64 2448
  tail call void @_ZN9VectorSetC1Ev(ptr noundef nonnull align 8 dereferenceable(32) %35) #16
  %36 = getelementptr inbounds i8, ptr %0, i64 2480
  store i32 0, ptr %36, align 8
  tail call void @_ZN8PhaseCCP7analyzeEv(ptr noundef nonnull align 8 dereferenceable(2488) %0)
  ret void
}